target datalayout = "e-m:e-p270:32:32-p271:32:32-p272:64:64-i64:64-i128:128-f80:128-n8:16:32:64-S128"
target triple = "x86_64-pc-linux-gnu"

@.str.11 = private unnamed_addr constant [24 x i8] c"dct3trace: %s not found\00", align 1
@.str.12 = private unnamed_addr constant [42 x i8] c"dct3trace: opening quote for %s not found\00", align 1
@.str.13 = private unnamed_addr constant [42 x i8] c"dct3trace: closing quote for %s not found\00", align 1
@.str.14 = private unnamed_addr constant [32 x i8] c"dct3trace: %s value is too long\00", align 1
@.str.15 = private unnamed_addr constant [48 x i8] c"dct3trace: %s value is too small, minimum is %d\00", align 1
@.str.16 = private unnamed_addr constant [48 x i8] c"dct3trace: %s value is too large, maximum is %d\00", align 1
@.str.17 = private unnamed_addr constant [38 x i8] c"dct3trace: %s value \22%s\22 not a number\00", align 1

; Function Attrs: alwaysinline nounwind
define internal ptr @memcpy.inline(ptr noalias %0, ptr noalias %1, i64 %2) #4 {
  %4 = alloca ptr, align 8
  %5 = alloca ptr, align 8
  %6 = alloca i64, align 8
  store ptr %0, ptr %4, align 8
  store ptr %1, ptr %5, align 8
  store i64 %2, ptr %6, align 8
  %7 = load ptr, ptr %4, align 8
  %8 = load ptr, ptr %5, align 8
  %9 = load i64, ptr %6, align 8
  %10 = load ptr, ptr %4, align 8
  %11 = call i64 @llvm.objectsize.i64.p0(ptr %10, i1 false, i1 true, i1 true)
  %12 = call ptr @__memcpy_chk(ptr noundef %7, ptr noundef %8, i64 noundef %9, i64 noundef %11) #9
  ret ptr %12
}

; Function Attrs: null_pointer_is_valid sspstrong uwtable
define internal zeroext i1 @xml_get_int(ptr noundef %0, ptr noundef %1, ptr noundef %2, ptr noundef %3, ptr noundef %4) #0 {
  %6 = alloca i1, align 1
  %7 = alloca ptr, align 8
  %8 = alloca ptr, align 8
  %9 = alloca ptr, align 8
  %10 = alloca ptr, align 8
  %11 = alloca ptr, align 8
  %12 = alloca ptr, align 8
  %13 = alloca ptr, align 8
  %14 = alloca ptr, align 8
  %15 = alloca ptr, align 8
  %16 = alloca [32 x i8], align 16
  %17 = alloca i32, align 4
  store ptr %0, ptr %7, align 8
  store ptr %1, ptr %8, align 8
  store ptr %2, ptr %9, align 8
  store ptr %3, ptr %10, align 8
  store ptr %4, ptr %11, align 8
  call void @llvm.lifetime.start.p0(i64 8, ptr %12) #9
  call void @llvm.lifetime.start.p0(i64 8, ptr %13) #9
  call void @llvm.lifetime.start.p0(i64 8, ptr %14) #9
  call void @llvm.lifetime.start.p0(i64 8, ptr %15) #9
  call void @llvm.lifetime.start.p0(i64 32, ptr %16) #9
  %18 = load ptr, ptr %8, align 8
  %19 = load ptr, ptr %9, align 8
  %20 = call ptr @strstr(ptr noundef %18, ptr noundef %19) #10
  store ptr %20, ptr %12, align 8
  %21 = load ptr, ptr %12, align 8
  %22 = icmp eq ptr %21, null
  br i1 %22, label %23, label %28

23:                                               ; preds = %5
  %24 = load ptr, ptr %10, align 8
  store i32 -13, ptr %24, align 4
  %25 = load ptr, ptr %9, align 8
  %26 = call noalias ptr (ptr, ptr, ...) @wmem_strdup_printf(ptr noundef null, ptr noundef @.str.11, ptr noundef %25)
  %27 = load ptr, ptr %11, align 8
  store ptr %26, ptr %27, align 8
  store i1 false, ptr %6, align 1
  store i32 1, ptr %17, align 4
  br label %120

28:                                               ; preds = %5
  %29 = load ptr, ptr %12, align 8
  %30 = call ptr @strchr(ptr noundef %29, i32 noundef 34) #10
  store ptr %30, ptr %14, align 8
  %31 = load ptr, ptr %14, align 8
  %32 = icmp eq ptr %31, null
  br i1 %32, label %33, label %38

33:                                               ; preds = %28
  %34 = load ptr, ptr %10, align 8
  store i32 -13, ptr %34, align 4
  %35 = load ptr, ptr %9, align 8
  %36 = call noalias ptr (ptr, ptr, ...) @wmem_strdup_printf(ptr noundef null, ptr noundef @.str.12, ptr noundef %35)
  %37 = load ptr, ptr %11, align 8
  store ptr %36, ptr %37, align 8
  store i1 false, ptr %6, align 1
  store i32 1, ptr %17, align 4
  br label %120

38:                                               ; preds = %28
  %39 = load ptr, ptr %14, align 8
  %40 = getelementptr i8, ptr %39, i32 1
  store ptr %40, ptr %14, align 8
  %41 = load ptr, ptr %14, align 8
  %42 = call ptr @strchr(ptr noundef %41, i32 noundef 34) #10
  store ptr %42, ptr %15, align 8
  %43 = load ptr, ptr %15, align 8
  %44 = icmp eq ptr %43, null
  br i1 %44, label %45, label %50

45:                                               ; preds = %38
  %46 = load ptr, ptr %10, align 8
  store i32 -13, ptr %46, align 4
  %47 = load ptr, ptr %9, align 8
  %48 = call noalias ptr (ptr, ptr, ...) @wmem_strdup_printf(ptr noundef null, ptr noundef @.str.13, ptr noundef %47)
  %49 = load ptr, ptr %11, align 8
  store ptr %48, ptr %49, align 8
  store i1 false, ptr %6, align 1
  store i32 1, ptr %17, align 4
  br label %120

50:                                               ; preds = %38
  %51 = load ptr, ptr %15, align 8
  %52 = load ptr, ptr %14, align 8
  %53 = ptrtoint ptr %51 to i64
  %54 = ptrtoint ptr %52 to i64
  %55 = sub i64 %53, %54
  %56 = icmp sgt i64 %55, 31
  br i1 %56, label %57, label %62

57:                                               ; preds = %50
  %58 = load ptr, ptr %10, align 8
  store i32 -13, ptr %58, align 4
  %59 = load ptr, ptr %9, align 8
  %60 = call noalias ptr (ptr, ptr, ...) @wmem_strdup_printf(ptr noundef null, ptr noundef @.str.14, ptr noundef %59)
  %61 = load ptr, ptr %11, align 8
  store ptr %60, ptr %61, align 8
  store i1 false, ptr %6, align 1
  store i32 1, ptr %17, align 4
  br label %120

62:                                               ; preds = %50
  %63 = getelementptr inbounds [32 x i8], ptr %16, i64 0, i64 0
  %64 = load ptr, ptr %14, align 8
  %65 = load ptr, ptr %15, align 8
  %66 = load ptr, ptr %14, align 8
  %67 = ptrtoint ptr %65 to i64
  %68 = ptrtoint ptr %66 to i64
  %69 = sub i64 %67, %68
  %70 = call ptr @memcpy.inline(ptr noundef %63, ptr noundef %64, i64 noundef %69) #9
  %71 = load ptr, ptr %15, align 8
  %72 = load ptr, ptr %14, align 8
  %73 = ptrtoint ptr %71 to i64
  %74 = ptrtoint ptr %72 to i64
  %75 = sub i64 %73, %74
  %76 = getelementptr [32 x i8], ptr %16, i64 0, i64 %75
  store i8 0, ptr %76, align 1
  %77 = getelementptr inbounds [32 x i8], ptr %16, i64 0, i64 0
  %78 = load ptr, ptr %7, align 8
  %79 = call zeroext i1 @ws_strtoi32(ptr noundef %77, ptr noundef %13, ptr noundef %78)
  br i1 %79, label %108, label %80

80:                                               ; preds = %62
  %81 = load ptr, ptr %10, align 8
  store i32 -13, ptr %81, align 4
  %82 = call ptr @__errno_location() #11
  %83 = load i32, ptr %82, align 4
  %84 = icmp eq i32 %83, 34
  br i1 %84, label %85, label %102

85:                                               ; preds = %80
  %86 = load ptr, ptr %7, align 8
  %87 = load i32, ptr %86, align 4
  %88 = icmp slt i32 %87, 0
  br i1 %88, label %89, label %95

89:                                               ; preds = %85
  %90 = load ptr, ptr %9, align 8
  %91 = load ptr, ptr %7, align 8
  %92 = load i32, ptr %91, align 4
  %93 = call noalias ptr (ptr, ptr, ...) @wmem_strdup_printf(ptr noundef null, ptr noundef @.str.15, ptr noundef %90, i32 noundef %92)
  %94 = load ptr, ptr %11, align 8
  store ptr %93, ptr %94, align 8
  br label %101

95:                                               ; preds = %85
  %96 = load ptr, ptr %9, align 8
  %97 = load ptr, ptr %7, align 8
  %98 = load i32, ptr %97, align 4
  %99 = call noalias ptr (ptr, ptr, ...) @wmem_strdup_printf(ptr noundef null, ptr noundef @.str.16, ptr noundef %96, i32 noundef %98)
  %100 = load ptr, ptr %11, align 8
  store ptr %99, ptr %100, align 8
  br label %101

101:                                              ; preds = %95, %89
  br label %107

102:                                              ; preds = %80
  %103 = load ptr, ptr %9, align 8
  %104 = getelementptr inbounds [32 x i8], ptr %16, i64 0, i64 0
  %105 = call noalias ptr (ptr, ptr, ...) @wmem_strdup_printf(ptr noundef null, ptr noundef @.str.17, ptr noundef %103, ptr noundef %104)
  %106 = load ptr, ptr %11, align 8
  store ptr %105, ptr %106, align 8
  br label %107

107:                                              ; preds = %102, %101
  store i1 false, ptr %6, align 1
  store i32 1, ptr %17, align 4
  br label %120

108:                                              ; preds = %62
  %109 = load ptr, ptr %13, align 8
  %110 = load i8, ptr %109, align 1
  %111 = sext i8 %110 to i32
  %112 = icmp ne i32 %111, 0
  br i1 %112, label %113, label %119

113:                                              ; preds = %108
  %114 = load ptr, ptr %10, align 8
  store i32 -13, ptr %114, align 4
  %115 = load ptr, ptr %9, align 8
  %116 = getelementptr inbounds [32 x i8], ptr %16, i64 0, i64 0
  %117 = call noalias ptr (ptr, ptr, ...) @wmem_strdup_printf(ptr noundef null, ptr noundef @.str.17, ptr noundef %115, ptr noundef %116)
  %118 = load ptr, ptr %11, align 8
  store ptr %117, ptr %118, align 8
  store i1 false, ptr %6, align 1
  store i32 1, ptr %17, align 4
  br label %120

119:                                              ; preds = %108
  store i1 true, ptr %6, align 1
  store i32 1, ptr %17, align 4
  br label %120

120:                                              ; preds = %119, %113, %107, %57, %45, %33, %23
  call void @llvm.lifetime.end.p0(i64 32, ptr %16) #9
  call void @llvm.lifetime.end.p0(i64 8, ptr %15) #9
  call void @llvm.lifetime.end.p0(i64 8, ptr %14) #9
  call void @llvm.lifetime.end.p0(i64 8, ptr %13) #9
  call void @llvm.lifetime.end.p0(i64 8, ptr %12) #9
  %121 = load i1, ptr %6, align 1
  ret i1 %121
}