; Function Attrs: null_pointer_is_valid sspstrong uwtable
define internal fastcc noundef zeroext i1 @xml_get_int(ptr noundef %0, ptr noundef %1, ptr noundef %2, ptr noundef writeonly captures(none) %3, ptr noundef writeonly captures(none) %4) unnamed_addr #0 {
  %6 = alloca ptr, align 8
  %7 = alloca [32 x i8], align 16
  call void @llvm.lifetime.start.p0(i64 8, ptr nonnull %6) #8
  call void @llvm.lifetime.start.p0(i64 32, ptr nonnull %7) #8
  %8 = tail call ptr @strstr(ptr noundef %1, ptr noundef %2) #9
  %9 = icmp eq ptr %8, null
  br i1 %9, label %10, label %12

10:                                               ; preds = %5
  store i32 -13, ptr %3, align 4
  %11 = tail call noalias ptr (ptr, ptr, ...) @wmem_strdup_printf(ptr noundef null, ptr noundef nonnull @.str.11, ptr noundef %2)
  br label %.sink.split

12:                                               ; preds = %5
  %13 = tail call ptr @strchr(ptr noundef nonnull dereferenceable(1) %8, i32 noundef 34) #9
  %14 = icmp eq ptr %13, null
  br i1 %14, label %15, label %17

15:                                               ; preds = %12
  store i32 -13, ptr %3, align 4
  %16 = tail call noalias ptr (ptr, ptr, ...) @wmem_strdup_printf(ptr noundef null, ptr noundef nonnull @.str.12, ptr noundef %2)
  br label %.sink.split

17:                                               ; preds = %12
  %18 = getelementptr i8, ptr %13, i64 1
  %19 = tail call ptr @strchr(ptr noundef %18, i32 noundef 34) #9
  %20 = icmp eq ptr %19, null
  br i1 %20, label %21, label %23

21:                                               ; preds = %17
  store i32 -13, ptr %3, align 4
  %22 = tail call noalias ptr (ptr, ptr, ...) @wmem_strdup_printf(ptr noundef null, ptr noundef nonnull @.str.13, ptr noundef %2)
  br label %.sink.split

23:                                               ; preds = %17
  %24 = ptrtoint ptr %19 to i64
  %25 = ptrtoint ptr %18 to i64
  %26 = sub i64 %24, %25
  %27 = icmp sgt i64 %26, 31
  br i1 %27, label %28, label %30

28:                                               ; preds = %23
  store i32 -13, ptr %3, align 4
  %29 = tail call noalias ptr (ptr, ptr, ...) @wmem_strdup_printf(ptr noundef null, ptr noundef nonnull @.str.14, ptr noundef %2)
  br label %.sink.split

30:                                               ; preds = %23
  %31 = call ptr @__memcpy_chk(ptr noundef nonnull %7, ptr noundef %18, i64 noundef range(i64 -9223372036854775808, 32) %26, i64 noundef 32) #8, !alias.scope !11
  %32 = getelementptr [32 x i8], ptr %7, i64 0, i64 %26
  store i8 0, ptr %32, align 1
  %33 = call zeroext i1 @ws_strtoi32(ptr noundef nonnull %7, ptr noundef nonnull %6, ptr noundef %0)
  br i1 %33, label %47, label %34

34:                                               ; preds = %30
  store i32 -13, ptr %3, align 4
  %35 = tail call ptr @__errno_location() #10
  %36 = load i32, ptr %35, align 4
  %37 = icmp eq i32 %36, 34
  br i1 %37, label %38, label %45

38:                                               ; preds = %34
  %39 = load i32, ptr %0, align 4
  %40 = icmp slt i32 %39, 0
  br i1 %40, label %41, label %43

41:                                               ; preds = %38
  %42 = call noalias ptr (ptr, ptr, ...) @wmem_strdup_printf(ptr noundef null, ptr noundef nonnull @.str.15, ptr noundef %2, i32 noundef %39)
  br label %.sink.split

43:                                               ; preds = %38
  %44 = call noalias ptr (ptr, ptr, ...) @wmem_strdup_printf(ptr noundef null, ptr noundef nonnull @.str.16, ptr noundef %2, i32 noundef %39)
  br label %.sink.split

45:                                               ; preds = %34
  %46 = call noalias ptr (ptr, ptr, ...) @wmem_strdup_printf(ptr noundef null, ptr noundef nonnull @.str.17, ptr noundef %2, ptr noundef nonnull %7)
  br label %.sink.split

47:                                               ; preds = %30
  %48 = load ptr, ptr %6, align 8
  %49 = load i8, ptr %48, align 1
  %.not = icmp eq i8 %49, 0
  br i1 %.not, label %52, label %50

50:                                               ; preds = %47
  store i32 -13, ptr %3, align 4
  %51 = call noalias ptr (ptr, ptr, ...) @wmem_strdup_printf(ptr noundef null, ptr noundef nonnull @.str.17, ptr noundef %2, ptr noundef nonnull %7)
  br label %.sink.split

.sink.split:                                      ; preds = %10, %15, %21, %28, %50, %41, %43, %45
  %.sink = phi ptr [ %46, %45 ], [ %44, %43 ], [ %42, %41 ], [ %51, %50 ], [ %29, %28 ], [ %22, %21 ], [ %16, %15 ], [ %11, %10 ]
  store ptr %.sink, ptr %4, align 8
  br label %52

52:                                               ; preds = %.sink.split, %47
  %.0 = phi i1 [ true, %47 ], [ false, %.sink.split ]
  call void @llvm.lifetime.end.p0(i64 32, ptr nonnull %7) #8
  call void @llvm.lifetime.end.p0(i64 8, ptr nonnull %6) #8
  ret i1 %.0
}